; Function Attrs: mustprogress null_pointer_is_valid sspstrong uwtable
define noundef double @_ZN15PacketListModel18parseNumericColumnERK7QStringPb(ptr noundef align 8 dereferenceable(24) %0, ptr noundef writeonly captures(none) %1) local_unnamed_addr #0 align 2 personality ptr @__gxx_personality_v0 {
  %3 = alloca %class.QByteArray, align 8
  %4 = alloca ptr, align 8
  call void @llvm.lifetime.start.p0(i64 24, ptr nonnull %3) #33
  call void @_ZN7QString13toUtf8_helperERKS_(ptr dead_on_unwind nonnull writable sret(%class.QByteArray) align 8 %3, ptr noundef align 8 dereferenceable(24) dereferenceable_or_null(24) %0)
  %5 = getelementptr inbounds nuw i8, ptr %3, i64 8
  %6 = load ptr, ptr %5, align 8
  %.not.i.i = icmp eq ptr %6, null
  %spec.select.i.i = select i1 %.not.i.i, ptr @_ZN10QByteArray6_emptyE, ptr %6
  call void @llvm.lifetime.start.p0(i64 8, ptr nonnull %4) #33
  store ptr null, ptr %4, align 8
  %7 = invoke double @g_ascii_strtod(ptr noundef nonnull %spec.select.i.i, ptr noundef nonnull %4)
          to label %8 unwind label %16

8:                                                ; preds = %2
  %9 = load ptr, ptr %4, align 8
  %10 = icmp ne ptr %spec.select.i.i, %9
  %11 = zext i1 %10 to i8
  store i8 %11, ptr %1, align 1
  call void @llvm.lifetime.end.p0(i64 8, ptr nonnull %4) #33
  %12 = load ptr, ptr %3, align 8
  %.not.i.i.i = icmp eq ptr %12, null
  br i1 %.not.i.i.i, label %_ZN10QByteArrayD2Ev.exit, label %_ZN17QArrayDataPointerIcE5derefEv.exit.i.i

_ZN17QArrayDataPointerIcE5derefEv.exit.i.i:       ; preds = %8
  %13 = atomicrmw sub ptr %12, i32 1 seq_cst, align 4
  %.not.i.i6 = icmp eq i32 %13, 1
  br i1 %.not.i.i6, label %14, label %_ZN10QByteArrayD2Ev.exit

14:                                               ; preds = %_ZN17QArrayDataPointerIcE5derefEv.exit.i.i
  %15 = load ptr, ptr %3, align 8
  call void @_ZN10QArrayData10deallocateEPS_xx(ptr noundef %15, i64 noundef 1, i64 noundef 8) #33
  br label %_ZN10QByteArrayD2Ev.exit

_ZN10QByteArrayD2Ev.exit:                         ; preds = %8, %_ZN17QArrayDataPointerIcE5derefEv.exit.i.i, %14
  call void @llvm.lifetime.end.p0(i64 24, ptr nonnull %3) #33
  ret double %7

16:                                               ; preds = %2
  %17 = landingpad { ptr, i32 }
          cleanup
  call void @llvm.lifetime.end.p0(i64 8, ptr nonnull %4) #33
  %18 = load ptr, ptr %3, align 8
  %.not.i.i.i7 = icmp eq ptr %18, null
  br i1 %.not.i.i.i7, label %_ZN10QByteArrayD2Ev.exit10, label %_ZN17QArrayDataPointerIcE5derefEv.exit.i.i8

_ZN17QArrayDataPointerIcE5derefEv.exit.i.i8:      ; preds = %16
  %19 = atomicrmw sub ptr %18, i32 1 seq_cst, align 4
  %.not.i.i9 = icmp eq i32 %19, 1
  br i1 %.not.i.i9, label %20, label %_ZN10QByteArrayD2Ev.exit10

20:                                               ; preds = %_ZN17QArrayDataPointerIcE5derefEv.exit.i.i8
  %21 = load ptr, ptr %3, align 8
  call void @_ZN10QArrayData10deallocateEPS_xx(ptr noundef %21, i64 noundef 1, i64 noundef 8) #33
  br label %_ZN10QByteArrayD2Ev.exit10

_ZN10QByteArrayD2Ev.exit10:                       ; preds = %16, %_ZN17QArrayDataPointerIcE5derefEv.exit.i.i8, %20
  call void @llvm.lifetime.end.p0(i64 24, ptr nonnull %3) #33
  resume { ptr, i32 } %17
}